target datalayout = "e-m:e-p270:32:32-p271:32:32-p272:64:64-i64:64-i128:128-f80:128-n8:16:32:64-S128"
target triple = "x86_64-pc-linux-gnu"

%struct.AVComplexDouble = type { double, double }
%struct.AVTXContext = type { i32, i32, ptr, ptr, ptr, ptr, [4 x ptr], i32, [4 x ptr], ptr, i32, i64, i32, float, double, ptr }

; Function Attrs: nounwind uwtable
define internal void @ff_tx_mdct_inv_double_c(ptr noundef %0, ptr noundef %1, ptr noundef %2, i64 noundef %3) #4 {
  %5 = alloca ptr, align 8
  %6 = alloca ptr, align 8
  %7 = alloca ptr, align 8
  %8 = alloca i64, align 8
  %9 = alloca ptr, align 8
  %10 = alloca ptr, align 8
  %11 = alloca ptr, align 8
  %12 = alloca ptr, align 8
  %13 = alloca ptr, align 8
  %14 = alloca i32, align 4
  %15 = alloca i32, align 4
  %16 = alloca ptr, align 8
  %17 = alloca i32, align 4
  %18 = alloca i32, align 4
  %19 = alloca %struct.AVComplexDouble, align 8
  %20 = alloca i32, align 4
  %21 = alloca i32, align 4
  %22 = alloca i32, align 4
  %23 = alloca %struct.AVComplexDouble, align 8
  %24 = alloca %struct.AVComplexDouble, align 8
  store ptr %0, ptr %5, align 8, !tbaa !17
  store ptr %1, ptr %6, align 8, !tbaa !8
  store ptr %2, ptr %7, align 8, !tbaa !8
  store i64 %3, ptr %8, align 8, !tbaa !30
  call void @llvm.lifetime.start.p0(i64 8, ptr %9) #10
  %25 = load ptr, ptr %6, align 8, !tbaa !8
  store ptr %25, ptr %9, align 8, !tbaa !59
  call void @llvm.lifetime.start.p0(i64 8, ptr %10) #10
  %26 = load ptr, ptr %5, align 8, !tbaa !17
  %27 = getelementptr inbounds nuw %struct.AVTXContext, ptr %26, i32 0, i32 3
  %28 = load ptr, ptr %27, align 8, !tbaa !31
  store ptr %28, ptr %10, align 8, !tbaa !59
  call void @llvm.lifetime.start.p0(i64 8, ptr %11) #10
  %29 = load ptr, ptr %7, align 8, !tbaa !8
  store ptr %29, ptr %11, align 8, !tbaa !38
  call void @llvm.lifetime.start.p0(i64 8, ptr %12) #10
  call void @llvm.lifetime.start.p0(i64 8, ptr %13) #10
  call void @llvm.lifetime.start.p0(i64 4, ptr %14) #10
  %30 = load ptr, ptr %5, align 8, !tbaa !17
  %31 = getelementptr inbounds nuw %struct.AVTXContext, ptr %30, i32 0, i32 0
  %32 = load i32, ptr %31, align 8, !tbaa !21
  %33 = ashr i32 %32, 1
  store i32 %33, ptr %14, align 4, !tbaa !4
  call void @llvm.lifetime.start.p0(i64 4, ptr %15) #10
  %34 = load ptr, ptr %5, align 8, !tbaa !17
  %35 = getelementptr inbounds nuw %struct.AVTXContext, ptr %34, i32 0, i32 0
  %36 = load i32, ptr %35, align 8, !tbaa !21
  %37 = ashr i32 %36, 2
  store i32 %37, ptr %15, align 4, !tbaa !4
  call void @llvm.lifetime.start.p0(i64 8, ptr %16) #10
  %38 = load ptr, ptr %5, align 8, !tbaa !17
  %39 = getelementptr inbounds nuw %struct.AVTXContext, ptr %38, i32 0, i32 2
  %40 = load ptr, ptr %39, align 8, !tbaa !68
  store ptr %40, ptr %16, align 8, !tbaa !19
  %41 = load i64, ptr %8, align 8, !tbaa !30
  %42 = udiv i64 %41, 8
  store i64 %42, ptr %8, align 8, !tbaa !30
  %43 = load ptr, ptr %11, align 8, !tbaa !38
  store ptr %43, ptr %12, align 8, !tbaa !38
  %44 = load ptr, ptr %11, align 8, !tbaa !38
  %45 = load i32, ptr %14, align 4, !tbaa !4
  %46 = mul nsw i32 %45, 2
  %47 = sub nsw i32 %46, 1
  %48 = sext i32 %47 to i64
  %49 = load i64, ptr %8, align 8, !tbaa !30
  %50 = mul nsw i64 %48, %49
  %51 = getelementptr inbounds double, ptr %44, i64 %50
  store ptr %51, ptr %13, align 8, !tbaa !38
  call void @llvm.lifetime.start.p0(i64 4, ptr %17) #10
  store i32 0, ptr %17, align 4, !tbaa !4
  br label %52

52:                                               ; preds = %130, %4
  %53 = load i32, ptr %17, align 4, !tbaa !4
  %54 = load i32, ptr %14, align 4, !tbaa !4
  %55 = icmp slt i32 %53, %54
  br i1 %55, label %57, label %56

56:                                               ; preds = %52
  call void @llvm.lifetime.end.p0(i64 4, ptr %17) #10
  br label %133

57:                                               ; preds = %52
  call void @llvm.lifetime.start.p0(i64 4, ptr %18) #10
  %58 = load ptr, ptr %16, align 8, !tbaa !19
  %59 = load i32, ptr %17, align 4, !tbaa !4
  %60 = sext i32 %59 to i64
  %61 = getelementptr inbounds i32, ptr %58, i64 %60
  %62 = load i32, ptr %61, align 4, !tbaa !4
  store i32 %62, ptr %18, align 4, !tbaa !4
  call void @llvm.lifetime.start.p0(i64 16, ptr %19) #10
  %63 = getelementptr inbounds nuw %struct.AVComplexDouble, ptr %19, i32 0, i32 0
  %64 = load ptr, ptr %13, align 8, !tbaa !38
  %65 = load i32, ptr %18, align 4, !tbaa !4
  %66 = sub nsw i32 0, %65
  %67 = sext i32 %66 to i64
  %68 = load i64, ptr %8, align 8, !tbaa !30
  %69 = mul nsw i64 %67, %68
  %70 = getelementptr inbounds double, ptr %64, i64 %69
  %71 = load double, ptr %70, align 8, !tbaa !29
  store double %71, ptr %63, align 8, !tbaa !32
  %72 = getelementptr inbounds nuw %struct.AVComplexDouble, ptr %19, i32 0, i32 1
  %73 = load ptr, ptr %12, align 8, !tbaa !38
  %74 = load i32, ptr %18, align 4, !tbaa !4
  %75 = sext i32 %74 to i64
  %76 = load i64, ptr %8, align 8, !tbaa !30
  %77 = mul nsw i64 %75, %76
  %78 = getelementptr inbounds double, ptr %73, i64 %77
  %79 = load double, ptr %78, align 8, !tbaa !29
  store double %79, ptr %72, align 8, !tbaa !34
  br label %80

80:                                               ; preds = %57
  %81 = getelementptr inbounds nuw %struct.AVComplexDouble, ptr %19, i32 0, i32 0
  %82 = load double, ptr %81, align 8, !tbaa !32
  %83 = load ptr, ptr %10, align 8, !tbaa !59
  %84 = load i32, ptr %17, align 4, !tbaa !4
  %85 = sext i32 %84 to i64
  %86 = getelementptr inbounds %struct.AVComplexDouble, ptr %83, i64 %85
  %87 = getelementptr inbounds nuw %struct.AVComplexDouble, ptr %86, i32 0, i32 0
  %88 = load double, ptr %87, align 8, !tbaa !32
  %89 = getelementptr inbounds nuw %struct.AVComplexDouble, ptr %19, i32 0, i32 1
  %90 = load double, ptr %89, align 8, !tbaa !34
  %91 = load ptr, ptr %10, align 8, !tbaa !59
  %92 = load i32, ptr %17, align 4, !tbaa !4
  %93 = sext i32 %92 to i64
  %94 = getelementptr inbounds %struct.AVComplexDouble, ptr %91, i64 %93
  %95 = getelementptr inbounds nuw %struct.AVComplexDouble, ptr %94, i32 0, i32 1
  %96 = load double, ptr %95, align 8, !tbaa !34
  %97 = fmul nsz double %90, %96
  %98 = fneg nsz double %97
  %99 = call nsz double @llvm.fmuladd.f64(double %82, double %88, double %98)
  %100 = load ptr, ptr %9, align 8, !tbaa !59
  %101 = load i32, ptr %17, align 4, !tbaa !4
  %102 = sext i32 %101 to i64
  %103 = getelementptr inbounds %struct.AVComplexDouble, ptr %100, i64 %102
  %104 = getelementptr inbounds nuw %struct.AVComplexDouble, ptr %103, i32 0, i32 0
  store double %99, ptr %104, align 8, !tbaa !32
  %105 = getelementptr inbounds nuw %struct.AVComplexDouble, ptr %19, i32 0, i32 0
  %106 = load double, ptr %105, align 8, !tbaa !32
  %107 = load ptr, ptr %10, align 8, !tbaa !59
  %108 = load i32, ptr %17, align 4, !tbaa !4
  %109 = sext i32 %108 to i64
  %110 = getelementptr inbounds %struct.AVComplexDouble, ptr %107, i64 %109
  %111 = getelementptr inbounds nuw %struct.AVComplexDouble, ptr %110, i32 0, i32 1
  %112 = load double, ptr %111, align 8, !tbaa !34
  %113 = getelementptr inbounds nuw %struct.AVComplexDouble, ptr %19, i32 0, i32 1
  %114 = load double, ptr %113, align 8, !tbaa !34
  %115 = load ptr, ptr %10, align 8, !tbaa !59
  %116 = load i32, ptr %17, align 4, !tbaa !4
  %117 = sext i32 %116 to i64
  %118 = getelementptr inbounds %struct.AVComplexDouble, ptr %115, i64 %117
  %119 = getelementptr inbounds nuw %struct.AVComplexDouble, ptr %118, i32 0, i32 0
  %120 = load double, ptr %119, align 8, !tbaa !32
  %121 = fmul nsz double %114, %120
  %122 = call nsz double @llvm.fmuladd.f64(double %106, double %112, double %121)
  %123 = load ptr, ptr %9, align 8, !tbaa !59
  %124 = load i32, ptr %17, align 4, !tbaa !4
  %125 = sext i32 %124 to i64
  %126 = getelementptr inbounds %struct.AVComplexDouble, ptr %123, i64 %125
  %127 = getelementptr inbounds nuw %struct.AVComplexDouble, ptr %126, i32 0, i32 1
  store double %122, ptr %127, align 8, !tbaa !34
  br label %128

128:                                              ; preds = %80
  br label %129

129:                                              ; preds = %128
  call void @llvm.lifetime.end.p0(i64 16, ptr %19) #10
  call void @llvm.lifetime.end.p0(i64 4, ptr %18) #10
  br label %130

130:                                              ; preds = %129
  %131 = load i32, ptr %17, align 4, !tbaa !4
  %132 = add nsw i32 %131, 1
  store i32 %132, ptr %17, align 4, !tbaa !4
  br label %52, !llvm.loop !96

133:                                              ; preds = %56
  %134 = load ptr, ptr %5, align 8, !tbaa !17
  %135 = getelementptr inbounds nuw %struct.AVTXContext, ptr %134, i32 0, i32 6
  %136 = getelementptr inbounds [4 x ptr], ptr %135, i64 0, i64 0
  %137 = load ptr, ptr %136, align 8, !tbaa !8
  %138 = load ptr, ptr %5, align 8, !tbaa !17
  %139 = getelementptr inbounds nuw %struct.AVTXContext, ptr %138, i32 0, i32 5
  %140 = load ptr, ptr %139, align 8, !tbaa !67
  %141 = getelementptr inbounds %struct.AVTXContext, ptr %140, i64 0
  %142 = load ptr, ptr %9, align 8, !tbaa !59
  %143 = load ptr, ptr %9, align 8, !tbaa !59
  call void %137(ptr noundef %141, ptr noundef %142, ptr noundef %143, i64 noundef 16)
  %144 = load i32, ptr %14, align 4, !tbaa !4
  %145 = load ptr, ptr %10, align 8, !tbaa !59
  %146 = sext i32 %144 to i64
  %147 = getelementptr inbounds %struct.AVComplexDouble, ptr %145, i64 %146
  store ptr %147, ptr %10, align 8, !tbaa !59
  call void @llvm.lifetime.start.p0(i64 4, ptr %20) #10
  store i32 0, ptr %20, align 4, !tbaa !4
  br label %148

148:                                              ; preds = %289, %133
  %149 = load i32, ptr %20, align 4, !tbaa !4
  %150 = load i32, ptr %15, align 4, !tbaa !4
  %151 = icmp slt i32 %149, %150
  br i1 %151, label %153, label %152

152:                                              ; preds = %148
  call void @llvm.lifetime.end.p0(i64 4, ptr %20) #10
  br label %292

153:                                              ; preds = %148
  call void @llvm.lifetime.start.p0(i64 4, ptr %21) #10
  %154 = load i32, ptr %15, align 4, !tbaa !4
  %155 = load i32, ptr %20, align 4, !tbaa !4
  %156 = add nsw i32 %154, %155
  store i32 %156, ptr %21, align 4, !tbaa !4
  call void @llvm.lifetime.start.p0(i64 4, ptr %22) #10
  %157 = load i32, ptr %15, align 4, !tbaa !4
  %158 = load i32, ptr %20, align 4, !tbaa !4
  %159 = sub nsw i32 %157, %158
  %160 = sub nsw i32 %159, 1
  store i32 %160, ptr %22, align 4, !tbaa !4
  call void @llvm.lifetime.start.p0(i64 16, ptr %23) #10
  %161 = getelementptr inbounds nuw %struct.AVComplexDouble, ptr %23, i32 0, i32 0
  %162 = load ptr, ptr %9, align 8, !tbaa !59
  %163 = load i32, ptr %22, align 4, !tbaa !4
  %164 = sext i32 %163 to i64
  %165 = getelementptr inbounds %struct.AVComplexDouble, ptr %162, i64 %164
  %166 = getelementptr inbounds nuw %struct.AVComplexDouble, ptr %165, i32 0, i32 1
  %167 = load double, ptr %166, align 8, !tbaa !34
  store double %167, ptr %161, align 8, !tbaa !32
  %168 = getelementptr inbounds nuw %struct.AVComplexDouble, ptr %23, i32 0, i32 1
  %169 = load ptr, ptr %9, align 8, !tbaa !59
  %170 = load i32, ptr %22, align 4, !tbaa !4
  %171 = sext i32 %170 to i64
  %172 = getelementptr inbounds %struct.AVComplexDouble, ptr %169, i64 %171
  %173 = getelementptr inbounds nuw %struct.AVComplexDouble, ptr %172, i32 0, i32 0
  %174 = load double, ptr %173, align 8, !tbaa !32
  store double %174, ptr %168, align 8, !tbaa !34
  call void @llvm.lifetime.start.p0(i64 16, ptr %24) #10
  %175 = getelementptr inbounds nuw %struct.AVComplexDouble, ptr %24, i32 0, i32 0
  %176 = load ptr, ptr %9, align 8, !tbaa !59
  %177 = load i32, ptr %21, align 4, !tbaa !4
  %178 = sext i32 %177 to i64
  %179 = getelementptr inbounds %struct.AVComplexDouble, ptr %176, i64 %178
  %180 = getelementptr inbounds nuw %struct.AVComplexDouble, ptr %179, i32 0, i32 1
  %181 = load double, ptr %180, align 8, !tbaa !34
  store double %181, ptr %175, align 8, !tbaa !32
  %182 = getelementptr inbounds nuw %struct.AVComplexDouble, ptr %24, i32 0, i32 1
  %183 = load ptr, ptr %9, align 8, !tbaa !59
  %184 = load i32, ptr %21, align 4, !tbaa !4
  %185 = sext i32 %184 to i64
  %186 = getelementptr inbounds %struct.AVComplexDouble, ptr %183, i64 %185
  %187 = getelementptr inbounds nuw %struct.AVComplexDouble, ptr %186, i32 0, i32 0
  %188 = load double, ptr %187, align 8, !tbaa !32
  store double %188, ptr %182, align 8, !tbaa !34
  br label %189

189:                                              ; preds = %153
  %190 = getelementptr inbounds nuw %struct.AVComplexDouble, ptr %23, i32 0, i32 0
  %191 = load double, ptr %190, align 8, !tbaa !32
  %192 = load ptr, ptr %10, align 8, !tbaa !59
  %193 = load i32, ptr %22, align 4, !tbaa !4
  %194 = sext i32 %193 to i64
  %195 = getelementptr inbounds %struct.AVComplexDouble, ptr %192, i64 %194
  %196 = getelementptr inbounds nuw %struct.AVComplexDouble, ptr %195, i32 0, i32 1
  %197 = load double, ptr %196, align 8, !tbaa !34
  %198 = getelementptr inbounds nuw %struct.AVComplexDouble, ptr %23, i32 0, i32 1
  %199 = load double, ptr %198, align 8, !tbaa !34
  %200 = load ptr, ptr %10, align 8, !tbaa !59
  %201 = load i32, ptr %22, align 4, !tbaa !4
  %202 = sext i32 %201 to i64
  %203 = getelementptr inbounds %struct.AVComplexDouble, ptr %200, i64 %202
  %204 = getelementptr inbounds nuw %struct.AVComplexDouble, ptr %203, i32 0, i32 0
  %205 = load double, ptr %204, align 8, !tbaa !32
  %206 = fmul nsz double %199, %205
  %207 = fneg nsz double %206
  %208 = call nsz double @llvm.fmuladd.f64(double %191, double %197, double %207)
  %209 = load ptr, ptr %9, align 8, !tbaa !59
  %210 = load i32, ptr %22, align 4, !tbaa !4
  %211 = sext i32 %210 to i64
  %212 = getelementptr inbounds %struct.AVComplexDouble, ptr %209, i64 %211
  %213 = getelementptr inbounds nuw %struct.AVComplexDouble, ptr %212, i32 0, i32 0
  store double %208, ptr %213, align 8, !tbaa !32
  %214 = getelementptr inbounds nuw %struct.AVComplexDouble, ptr %23, i32 0, i32 0
  %215 = load double, ptr %214, align 8, !tbaa !32
  %216 = load ptr, ptr %10, align 8, !tbaa !59
  %217 = load i32, ptr %22, align 4, !tbaa !4
  %218 = sext i32 %217 to i64
  %219 = getelementptr inbounds %struct.AVComplexDouble, ptr %216, i64 %218
  %220 = getelementptr inbounds nuw %struct.AVComplexDouble, ptr %219, i32 0, i32 0
  %221 = load double, ptr %220, align 8, !tbaa !32
  %222 = getelementptr inbounds nuw %struct.AVComplexDouble, ptr %23, i32 0, i32 1
  %223 = load double, ptr %222, align 8, !tbaa !34
  %224 = load ptr, ptr %10, align 8, !tbaa !59
  %225 = load i32, ptr %22, align 4, !tbaa !4
  %226 = sext i32 %225 to i64
  %227 = getelementptr inbounds %struct.AVComplexDouble, ptr %224, i64 %226
  %228 = getelementptr inbounds nuw %struct.AVComplexDouble, ptr %227, i32 0, i32 1
  %229 = load double, ptr %228, align 8, !tbaa !34
  %230 = fmul nsz double %223, %229
  %231 = call nsz double @llvm.fmuladd.f64(double %215, double %221, double %230)
  %232 = load ptr, ptr %9, align 8, !tbaa !59
  %233 = load i32, ptr %21, align 4, !tbaa !4
  %234 = sext i32 %233 to i64
  %235 = getelementptr inbounds %struct.AVComplexDouble, ptr %232, i64 %234
  %236 = getelementptr inbounds nuw %struct.AVComplexDouble, ptr %235, i32 0, i32 1
  store double %231, ptr %236, align 8, !tbaa !34
  br label %237

237:                                              ; preds = %189
  br label %238

238:                                              ; preds = %237
  br label %239

239:                                              ; preds = %238
  %240 = getelementptr inbounds nuw %struct.AVComplexDouble, ptr %24, i32 0, i32 0
  %241 = load double, ptr %240, align 8, !tbaa !32
  %242 = load ptr, ptr %10, align 8, !tbaa !59
  %243 = load i32, ptr %21, align 4, !tbaa !4
  %244 = sext i32 %243 to i64
  %245 = getelementptr inbounds %struct.AVComplexDouble, ptr %242, i64 %244
  %246 = getelementptr inbounds nuw %struct.AVComplexDouble, ptr %245, i32 0, i32 1
  %247 = load double, ptr %246, align 8, !tbaa !34
  %248 = getelementptr inbounds nuw %struct.AVComplexDouble, ptr %24, i32 0, i32 1
  %249 = load double, ptr %248, align 8, !tbaa !34
  %250 = load ptr, ptr %10, align 8, !tbaa !59
  %251 = load i32, ptr %21, align 4, !tbaa !4
  %252 = sext i32 %251 to i64
  %253 = getelementptr inbounds %struct.AVComplexDouble, ptr %250, i64 %252
  %254 = getelementptr inbounds nuw %struct.AVComplexDouble, ptr %253, i32 0, i32 0
  %255 = load double, ptr %254, align 8, !tbaa !32
  %256 = fmul nsz double %249, %255
  %257 = fneg nsz double %256
  %258 = call nsz double @llvm.fmuladd.f64(double %241, double %247, double %257)
  %259 = load ptr, ptr %9, align 8, !tbaa !59
  %260 = load i32, ptr %21, align 4, !tbaa !4
  %261 = sext i32 %260 to i64
  %262 = getelementptr inbounds %struct.AVComplexDouble, ptr %259, i64 %261
  %263 = getelementptr inbounds nuw %struct.AVComplexDouble, ptr %262, i32 0, i32 0
  store double %258, ptr %263, align 8, !tbaa !32
  %264 = getelementptr inbounds nuw %struct.AVComplexDouble, ptr %24, i32 0, i32 0
  %265 = load double, ptr %264, align 8, !tbaa !32
  %266 = load ptr, ptr %10, align 8, !tbaa !59
  %267 = load i32, ptr %21, align 4, !tbaa !4
  %268 = sext i32 %267 to i64
  %269 = getelementptr inbounds %struct.AVComplexDouble, ptr %266, i64 %268
  %270 = getelementptr inbounds nuw %struct.AVComplexDouble, ptr %269, i32 0, i32 0
  %271 = load double, ptr %270, align 8, !tbaa !32
  %272 = getelementptr inbounds nuw %struct.AVComplexDouble, ptr %24, i32 0, i32 1
  %273 = load double, ptr %272, align 8, !tbaa !34
  %274 = load ptr, ptr %10, align 8, !tbaa !59
  %275 = load i32, ptr %21, align 4, !tbaa !4
  %276 = sext i32 %275 to i64
  %277 = getelementptr inbounds %struct.AVComplexDouble, ptr %274, i64 %276
  %278 = getelementptr inbounds nuw %struct.AVComplexDouble, ptr %277, i32 0, i32 1
  %279 = load double, ptr %278, align 8, !tbaa !34
  %280 = fmul nsz double %273, %279
  %281 = call nsz double @llvm.fmuladd.f64(double %265, double %271, double %280)
  %282 = load ptr, ptr %9, align 8, !tbaa !59
  %283 = load i32, ptr %22, align 4, !tbaa !4
  %284 = sext i32 %283 to i64
  %285 = getelementptr inbounds %struct.AVComplexDouble, ptr %282, i64 %284
  %286 = getelementptr inbounds nuw %struct.AVComplexDouble, ptr %285, i32 0, i32 1
  store double %281, ptr %286, align 8, !tbaa !34
  br label %287

287:                                              ; preds = %239
  br label %288

288:                                              ; preds = %287
  call void @llvm.lifetime.end.p0(i64 16, ptr %24) #10
  call void @llvm.lifetime.end.p0(i64 16, ptr %23) #10
  call void @llvm.lifetime.end.p0(i64 4, ptr %22) #10
  call void @llvm.lifetime.end.p0(i64 4, ptr %21) #10
  br label %289

289:                                              ; preds = %288
  %290 = load i32, ptr %20, align 4, !tbaa !4
  %291 = add nsw i32 %290, 1
  store i32 %291, ptr %20, align 4, !tbaa !4
  br label %148, !llvm.loop !97

292:                                              ; preds = %152
  call void @llvm.lifetime.end.p0(i64 8, ptr %16) #10
  call void @llvm.lifetime.end.p0(i64 4, ptr %15) #10
  call void @llvm.lifetime.end.p0(i64 4, ptr %14) #10
  call void @llvm.lifetime.end.p0(i64 8, ptr %13) #10
  call void @llvm.lifetime.end.p0(i64 8, ptr %12) #10
  call void @llvm.lifetime.end.p0(i64 8, ptr %11) #10
  call void @llvm.lifetime.end.p0(i64 8, ptr %10) #10
  call void @llvm.lifetime.end.p0(i64 8, ptr %9) #10
  ret void
}