; Function Attrs: nounwind uwtable
define internal void @ff_tx_mdct_inv_double_c(ptr noundef readonly captures(none) %0, ptr noundef %1, ptr noundef readonly captures(none) %2, i64 noundef %3) #3 {
  %5 = getelementptr inbounds nuw i8, ptr %0, i64 16
  %6 = load ptr, ptr %5, align 8, !tbaa !26
  %7 = load i32, ptr %0, align 8, !tbaa !16
  %8 = ashr i32 %7, 1
  %9 = ashr i32 %7, 2
  %10 = getelementptr inbounds nuw i8, ptr %0, i64 8
  %11 = load ptr, ptr %10, align 8, !tbaa !58
  %12 = lshr i64 %3, 3
  %13 = and i32 %7, -2
  %14 = add nsw i32 %13, -1
  %15 = sext i32 %14 to i64
  %16 = mul nsw i64 %12, %15
  %17 = getelementptr inbounds double, ptr %2, i64 %16
  %18 = icmp sgt i32 %8, 0
  br i1 %18, label %.lr.ph.preheader, label %._crit_edge

.lr.ph.preheader:                                 ; preds = %4
  %wide.trip.count = zext nneg i32 %8 to i64
  br label %.lr.ph

._crit_edge:                                      ; preds = %.lr.ph, %4
  %19 = getelementptr inbounds nuw i8, ptr %0, i64 40
  %20 = load ptr, ptr %19, align 8, !tbaa !4
  %21 = getelementptr inbounds nuw i8, ptr %0, i64 32
  %22 = load ptr, ptr %21, align 8, !tbaa !57
  tail call void %20(ptr noundef %22, ptr noundef %1, ptr noundef %1, i64 noundef 16) #16
  %23 = sext i32 %8 to i64
  %24 = getelementptr inbounds %struct.AVComplexDouble, ptr %6, i64 %23
  %25 = icmp sgt i32 %9, 0
  br i1 %25, label %.lr.ph94.preheader, label %._crit_edge95

.lr.ph94.preheader:                               ; preds = %._crit_edge
  %26 = zext nneg i32 %9 to i64
  %wide.trip.count100 = zext nneg i32 %9 to i64
  br label %.lr.ph94

.lr.ph:                                           ; preds = %.lr.ph.preheader, %.lr.ph
  %indvars.iv = phi i64 [ 0, %.lr.ph.preheader ], [ %indvars.iv.next, %.lr.ph ]
  %27 = getelementptr inbounds nuw i32, ptr %11, i64 %indvars.iv
  %28 = load i32, ptr %27, align 4, !tbaa !10
  %29 = sub nsw i32 0, %28
  %30 = sext i32 %29 to i64
  %31 = mul nsw i64 %12, %30
  %32 = getelementptr inbounds double, ptr %17, i64 %31
  %33 = load double, ptr %32, align 8, !tbaa !27
  %34 = sext i32 %28 to i64
  %35 = mul nsw i64 %12, %34
  %36 = getelementptr inbounds double, ptr %2, i64 %35
  %37 = load double, ptr %36, align 8, !tbaa !27
  %38 = getelementptr inbounds nuw %struct.AVComplexDouble, ptr %6, i64 %indvars.iv
  %39 = load double, ptr %38, align 8, !tbaa !50
  %40 = getelementptr inbounds nuw i8, ptr %38, i64 8
  %41 = load double, ptr %40, align 8, !tbaa !52
  %42 = fneg nsz double %41
  %43 = fmul nsz double %37, %42
  %44 = tail call nsz double @llvm.fmuladd.f64(double %33, double %39, double %43)
  %45 = getelementptr inbounds nuw %struct.AVComplexDouble, ptr %1, i64 %indvars.iv
  store double %44, ptr %45, align 8, !tbaa !50
  %46 = load double, ptr %38, align 8, !tbaa !50
  %47 = fmul nsz double %37, %46
  %48 = tail call nsz double @llvm.fmuladd.f64(double %33, double %41, double %47)
  %49 = getelementptr inbounds nuw i8, ptr %45, i64 8
  store double %48, ptr %49, align 8, !tbaa !52
  %indvars.iv.next = add nuw nsw i64 %indvars.iv, 1
  %exitcond.not = icmp eq i64 %indvars.iv.next, %wide.trip.count
  br i1 %exitcond.not, label %._crit_edge, label %.lr.ph, !llvm.loop !87

._crit_edge95:                                    ; preds = %.lr.ph94, %._crit_edge
  ret void

.lr.ph94:                                         ; preds = %.lr.ph94.preheader, %.lr.ph94
  %indvars.iv97 = phi i64 [ 0, %.lr.ph94.preheader ], [ %indvars.iv.next98, %.lr.ph94 ]
  %50 = add nuw nsw i64 %indvars.iv97, %26
  %51 = xor i64 %indvars.iv97, -1
  %52 = add nsw i64 %26, %51
  %53 = getelementptr inbounds %struct.AVComplexDouble, ptr %1, i64 %52
  %54 = getelementptr inbounds nuw i8, ptr %53, i64 8
  %55 = load double, ptr %54, align 8, !tbaa !52
  %56 = load double, ptr %53, align 8, !tbaa !50
  %57 = getelementptr inbounds nuw %struct.AVComplexDouble, ptr %1, i64 %50
  %58 = getelementptr inbounds nuw i8, ptr %57, i64 8
  %59 = load double, ptr %58, align 8, !tbaa !52
  %60 = load double, ptr %57, align 8, !tbaa !50
  %61 = getelementptr inbounds %struct.AVComplexDouble, ptr %24, i64 %52
  %62 = getelementptr inbounds nuw i8, ptr %61, i64 8
  %63 = load double, ptr %62, align 8, !tbaa !52
  %64 = load double, ptr %61, align 8, !tbaa !50
  %65 = fneg nsz double %64
  %66 = fmul nsz double %56, %65
  %67 = tail call nsz double @llvm.fmuladd.f64(double %55, double %63, double %66)
  store double %67, ptr %53, align 8, !tbaa !50
  %68 = load double, ptr %61, align 8, !tbaa !50
  %69 = fmul nsz double %56, %63
  %70 = tail call nsz double @llvm.fmuladd.f64(double %55, double %68, double %69)
  store double %70, ptr %58, align 8, !tbaa !52
  %71 = getelementptr inbounds nuw %struct.AVComplexDouble, ptr %24, i64 %50
  %72 = getelementptr inbounds nuw i8, ptr %71, i64 8
  %73 = load double, ptr %72, align 8, !tbaa !52
  %74 = load double, ptr %71, align 8, !tbaa !50
  %75 = fneg nsz double %74
  %76 = fmul nsz double %60, %75
  %77 = tail call nsz double @llvm.fmuladd.f64(double %59, double %73, double %76)
  store double %77, ptr %57, align 8, !tbaa !50
  %78 = load double, ptr %71, align 8, !tbaa !50
  %79 = fmul nsz double %60, %73
  %80 = tail call nsz double @llvm.fmuladd.f64(double %59, double %78, double %79)
  store double %80, ptr %54, align 8, !tbaa !52
  %indvars.iv.next98 = add nuw nsw i64 %indvars.iv97, 1
  %exitcond101.not = icmp eq i64 %indvars.iv.next98, %wide.trip.count100
  br i1 %exitcond101.not, label %._crit_edge95, label %.lr.ph94, !llvm.loop !88
}